target datalayout = "e-m:e-p270:32:32-p271:32:32-p272:64:64-i64:64-i128:128-f80:128-n8:16:32:64-S128"
target triple = "x86_64-pc-linux-gnu"

%struct.reassembly_table = type { ptr, ptr, ptr, ptr, ptr }
%struct._packet_info = type { ptr, ptr, i32, i32, %struct.nstime_t, %struct.nstime_t, %struct.nstime_t, i32, ptr, ptr, ptr, ptr, %struct._address, %struct._address, %struct._address, %struct._address, %struct._address, %struct._address, i32, ptr, i32, %struct.anon, i32, i32, i32, i32, ptr, i32, ptr, ptr, i16, i16, i32, i32, i16, i32, i32, ptr, ptr, ptr, i8, i8, i16, i16, i16, i32, i16, i16, ptr, ptr, ptr, ptr, ptr, i32 }
%struct.nstime_t = type { i64, i32 }
%struct._address = type { i32, i32, ptr, ptr }
%struct.anon = type { i8, [3 x i8] }

@hf_nfapi_sfn_sf = internal global i32 0, align 4
@ul_p7_reassemble_table = internal global %struct.reassembly_table zeroinitializer, align 8
@.str.2647 = private unnamed_addr constant [18 x i8] c"Reassembled UL P7\00", align 1
@.str.2648 = private unnamed_addr constant [26 x i8] c"[NFAPI P7 Reassembled %d]\00", align 1
@.str.2649 = private unnamed_addr constant [22 x i8] c"[NFAPI P7 Segment %d]\00", align 1

; Function Attrs: nounwind uwtable
define internal i32 @dissect_nfapi_ul_p7(ptr noundef %0, ptr noundef %1, ptr noundef %2, ptr noundef %3) #0 {
  %5 = alloca i32, align 4
  %6 = alloca ptr, align 8
  %7 = alloca ptr, align 8
  %8 = alloca ptr, align 8
  %9 = alloca ptr, align 8
  %10 = alloca i8, align 1
  %11 = alloca i8, align 1
  %12 = alloca i8, align 1
  %13 = alloca i32, align 4
  %14 = alloca i8, align 1
  %15 = alloca i16, align 2
  %16 = alloca i16, align 2
  %17 = alloca ptr, align 8
  %18 = alloca ptr, align 8
  %19 = alloca ptr, align 8
  store ptr %0, ptr %6, align 8
  store ptr %1, ptr %7, align 8
  store ptr %2, ptr %8, align 8
  store ptr %3, ptr %9, align 8
  %20 = load ptr, ptr %6, align 8
  %21 = call zeroext i16 @tvb_get_ntohs(ptr noundef %20, i32 noundef 2)
  store i16 %21, ptr %15, align 2
  %22 = load ptr, ptr %6, align 8
  %23 = call zeroext i16 @tvb_get_ntohs(ptr noundef %22, i32 noundef 4)
  store i16 %23, ptr %16, align 2
  %24 = load ptr, ptr %6, align 8
  %25 = load ptr, ptr %7, align 8
  %26 = load ptr, ptr %8, align 8
  %27 = call i32 @dissect_p7_header(ptr noundef %24, ptr noundef %25, ptr noundef %26, ptr noundef %10, ptr noundef %11, ptr noundef %12)
  store i32 %27, ptr %13, align 4
  %28 = load ptr, ptr %7, align 8
  %29 = getelementptr inbounds %struct._packet_info, ptr %28, i32 0, i32 20
  %30 = load i32, ptr %29, align 8
  %31 = trunc i32 %30 to i8
  store i8 %31, ptr %14, align 1
  %32 = load i8, ptr %10, align 1
  %33 = zext i8 %32 to i32
  %34 = icmp eq i32 %33, 1
  br i1 %34, label %43, label %35

35:                                               ; preds = %4
  %36 = load i8, ptr %10, align 1
  %37 = zext i8 %36 to i32
  %38 = icmp eq i32 %37, 0
  br i1 %38, label %39, label %100

39:                                               ; preds = %35
  %40 = load i8, ptr %11, align 1
  %41 = zext i8 %40 to i32
  %42 = icmp sgt i32 %41, 0
  br i1 %42, label %43, label %100

43:                                               ; preds = %39, %4
  %44 = load ptr, ptr %6, align 8
  store ptr %44, ptr %18, align 8
  %45 = load i32, ptr %13, align 4
  %46 = load i16, ptr %16, align 2
  %47 = zext i16 %46 to i32
  %48 = icmp sge i32 %45, %47
  br i1 %48, label %49, label %52

49:                                               ; preds = %43
  %50 = load ptr, ptr %6, align 8
  %51 = call i32 @tvb_captured_length(ptr noundef %50)
  store i32 %51, ptr %5, align 4
  br label %126

52:                                               ; preds = %43
  %53 = load ptr, ptr %7, align 8
  %54 = getelementptr inbounds %struct._packet_info, ptr %53, i32 0, i32 20
  store i32 1, ptr %54, align 8
  %55 = load ptr, ptr %6, align 8
  %56 = load i32, ptr %13, align 4
  %57 = load ptr, ptr %7, align 8
  %58 = load i8, ptr %12, align 1
  %59 = zext i8 %58 to i32
  %60 = load i8, ptr %11, align 1
  %61 = zext i8 %60 to i32
  %62 = load i16, ptr %16, align 2
  %63 = zext i16 %62 to i32
  %64 = load i32, ptr %13, align 4
  %65 = sub i32 %63, %64
  %66 = load i8, ptr %10, align 1
  %67 = zext i8 %66 to i32
  %68 = icmp eq i32 %67, 1
  %69 = zext i1 %68 to i32
  %70 = call ptr @fragment_add_seq_check(ptr noundef @ul_p7_reassemble_table, ptr noundef %55, i32 noundef %56, ptr noundef %57, i32 noundef %59, ptr noundef null, i32 noundef %61, i32 noundef %65, i32 noundef %69)
  store ptr %70, ptr %17, align 8
  %71 = load ptr, ptr %17, align 8
  %72 = icmp eq ptr %71, null
  br i1 %72, label %73, label %76

73:                                               ; preds = %52
  %74 = load ptr, ptr %6, align 8
  %75 = call i32 @tvb_captured_length(ptr noundef %74)
  store i32 %75, ptr %5, align 4
  br label %126

76:                                               ; preds = %52
  %77 = load ptr, ptr %6, align 8
  %78 = load i32, ptr %13, align 4
  %79 = load ptr, ptr %7, align 8
  %80 = load ptr, ptr %17, align 8
  %81 = load ptr, ptr %8, align 8
  %82 = call ptr @process_reassembled_data(ptr noundef %77, i32 noundef %78, ptr noundef %79, ptr noundef @.str.2647, ptr noundef %80, ptr noundef @msg_frag_items, ptr noundef null, ptr noundef %81)
  store ptr %82, ptr %6, align 8
  %83 = load ptr, ptr %6, align 8
  %84 = icmp ne ptr %83, null
  br i1 %84, label %85, label %91

85:                                               ; preds = %76
  store i32 0, ptr %13, align 4
  %86 = load ptr, ptr %7, align 8
  %87 = getelementptr inbounds %struct._packet_info, ptr %86, i32 0, i32 1
  %88 = load ptr, ptr %87, align 8
  %89 = load i8, ptr %11, align 1
  %90 = zext i8 %89 to i32
  call void (ptr, i32, ptr, ...) @col_append_fstr(ptr noundef %88, i32 noundef 25, ptr noundef @.str.2648, i32 noundef %90)
  br label %99

91:                                               ; preds = %76
  %92 = load ptr, ptr %7, align 8
  %93 = getelementptr inbounds %struct._packet_info, ptr %92, i32 0, i32 1
  %94 = load ptr, ptr %93, align 8
  %95 = load i8, ptr %11, align 1
  %96 = zext i8 %95 to i32
  call void (ptr, i32, ptr, ...) @col_append_fstr(ptr noundef %94, i32 noundef 25, ptr noundef @.str.2649, i32 noundef %96)
  %97 = load ptr, ptr %18, align 8
  %98 = call i32 @tvb_captured_length(ptr noundef %97)
  store i32 %98, ptr %5, align 4
  br label %126

99:                                               ; preds = %85
  br label %100

100:                                              ; preds = %99, %39, %35
  %101 = load i8, ptr %14, align 1
  %102 = zext i8 %101 to i32
  %103 = load ptr, ptr %7, align 8
  %104 = getelementptr inbounds %struct._packet_info, ptr %103, i32 0, i32 20
  store i32 %102, ptr %104, align 8
  %105 = load i16, ptr %15, align 2
  %106 = zext i16 %105 to i32
  switch i32 %106, label %123 [
    i32 133, label %107
    i32 134, label %107
    i32 135, label %107
    i32 136, label %107
    i32 137, label %107
    i32 138, label %107
    i32 139, label %107
  ]

107:                                              ; preds = %100, %100, %100, %100, %100, %100, %100
  %108 = load ptr, ptr %7, align 8
  %109 = getelementptr inbounds %struct._packet_info, ptr %108, i32 0, i32 50
  %110 = load ptr, ptr %109, align 8
  %111 = load ptr, ptr %8, align 8
  %112 = load ptr, ptr %6, align 8
  %113 = load i32, ptr %13, align 4
  %114 = call ptr @ptvcursor_new(ptr noundef %110, ptr noundef %111, ptr noundef %112, i32 noundef %113)
  store ptr %114, ptr %19, align 8
  %115 = load ptr, ptr %19, align 8
  %116 = load i32, ptr @hf_nfapi_sfn_sf, align 4
  %117 = call ptr @ptvcursor_add(ptr noundef %115, i32 noundef %116, i32 noundef 2, i32 noundef 0)
  %118 = load ptr, ptr %19, align 8
  %119 = load ptr, ptr %7, align 8
  %120 = load i16, ptr %16, align 2
  %121 = zext i16 %120 to i32
  call void @dissect_tlv_list(ptr noundef %118, ptr noundef %119, i32 noundef %121)
  %122 = load ptr, ptr %19, align 8
  call void @ptvcursor_free(ptr noundef %122)
  br label %123

123:                                              ; preds = %107, %100
  %124 = load ptr, ptr %6, align 8
  %125 = call i32 @tvb_captured_length(ptr noundef %124)
  store i32 %125, ptr %5, align 4
  br label %126

126:                                              ; preds = %123, %91, %73, %49
  %127 = load i32, ptr %5, align 4
  ret i32 %127
}