; Function Attrs: nounwind uwtable
define internal i32 @dissect_nfapi_ul_p7(ptr noundef %0, ptr noundef %1, ptr noundef %2, ptr readnone captures(none) %3) #0 {
  %5 = alloca i8, align 1
  %6 = alloca i8, align 1
  %7 = alloca i8, align 1
  %8 = tail call zeroext i16 @tvb_get_ntohs(ptr noundef %0, i32 noundef 2) #7
  %9 = tail call zeroext i16 @tvb_get_ntohs(ptr noundef %0, i32 noundef 4) #7
  call fastcc void @dissect_p7_header(ptr noundef %0, ptr noundef %2, ptr noundef nonnull %5, ptr noundef nonnull %6, ptr noundef nonnull %7)
  %10 = getelementptr inbounds nuw i8, ptr %1, i64 272
  %11 = load i32, ptr %10, align 8
  %12 = load i8, ptr %5, align 1
  %13 = icmp eq i8 %12, 1
  br i1 %13, label %18, label %14

14:                                               ; preds = %4
  %15 = icmp eq i8 %12, 0
  %16 = load i8, ptr %6, align 1
  %17 = icmp ne i8 %16, 0
  %or.cond = select i1 %15, i1 %17, i1 false
  br i1 %or.cond, label %18, label %38

18:                                               ; preds = %14, %4
  %19 = icmp ult i16 %9, 17
  br i1 %19, label %47, label %20

20:                                               ; preds = %18
  %21 = zext i16 %9 to i32
  store i32 1, ptr %10, align 8
  %22 = load i8, ptr %7, align 1
  %23 = zext i8 %22 to i32
  %24 = load i8, ptr %6, align 1
  %25 = zext i8 %24 to i32
  %26 = add nsw i32 %21, -16
  %27 = zext i1 %13 to i32
  %28 = call ptr @fragment_add_seq_check(ptr noundef nonnull @ul_p7_reassemble_table, ptr noundef %0, i32 noundef 16, ptr noundef nonnull %1, i32 noundef %23, ptr noundef null, i32 noundef %25, i32 noundef %26, i32 noundef %27) #7
  %29 = icmp eq ptr %28, null
  br i1 %29, label %47, label %30

30:                                               ; preds = %20
  %31 = call ptr @process_reassembled_data(ptr noundef %0, i32 noundef 16, ptr noundef nonnull %1, ptr noundef nonnull @.str.2647, ptr noundef nonnull %28, ptr noundef nonnull @msg_frag_items, ptr noundef null, ptr noundef %2) #7
  %.not = icmp eq ptr %31, null
  %32 = getelementptr inbounds nuw i8, ptr %1, i64 8
  %33 = load ptr, ptr %32, align 8
  %34 = load i8, ptr %6, align 1
  %35 = zext i8 %34 to i32
  br i1 %.not, label %37, label %36

36:                                               ; preds = %30
  call void (ptr, i32, ptr, ...) @col_append_fstr(ptr noundef %33, i32 noundef 25, ptr noundef nonnull @.str.2648, i32 noundef %35) #7
  br label %38

37:                                               ; preds = %30
  call void (ptr, i32, ptr, ...) @col_append_fstr(ptr noundef %33, i32 noundef 25, ptr noundef nonnull @.str.2649, i32 noundef %35) #7
  br label %47

38:                                               ; preds = %36, %14
  %.043 = phi i32 [ 0, %36 ], [ 16, %14 ]
  %.042 = phi ptr [ %31, %36 ], [ %0, %14 ]
  %39 = and i32 %11, 255
  store i32 %39, ptr %10, align 8
  %.off = add i16 %8, -133
  %switch = icmp ult i16 %.off, 7
  br i1 %switch, label %40, label %47

40:                                               ; preds = %38
  %41 = getelementptr inbounds nuw i8, ptr %1, i64 408
  %42 = load ptr, ptr %41, align 8
  %43 = call ptr @ptvcursor_new(ptr noundef %42, ptr noundef %2, ptr noundef %.042, i32 noundef %.043) #7
  %44 = load i32, ptr @hf_nfapi_sfn_sf, align 4
  %45 = call ptr @ptvcursor_add(ptr noundef %43, i32 noundef %44, i32 noundef 2, i32 noundef 0) #7
  %46 = zext i16 %9 to i32
  call fastcc void @dissect_tlv_list(ptr noundef %43, ptr noundef nonnull %1, i32 noundef %46)
  call void @ptvcursor_free(ptr noundef %43) #7
  br label %47

47:                                               ; preds = %40, %38, %20, %18, %37
  %.042.sink = phi ptr [ %0, %37 ], [ %0, %18 ], [ %0, %20 ], [ %.042, %38 ], [ %.042, %40 ]
  %48 = call i32 @tvb_captured_length(ptr noundef %.042.sink) #7
  ret i32 %48
}